target datalayout = "e-m:e-p270:32:32-p271:32:32-p272:64:64-i64:64-i128:128-f80:128-n8:16:32:64-S128"
target triple = "x86_64-pc-linux-gnu"

%union.pthread_mutex_t = type { %struct.__pthread_mutex_s }
%struct.__pthread_mutex_s = type { i32, i32, i32, i32, i32, i16, i16, %struct.__pthread_internal_list }
%struct.__pthread_internal_list = type { ptr, ptr }
%struct._logger = type { ptr, ptr, %union.pthread_mutex_t, i64, i64, i64, i16, i16, i16, ptr, ptr }
%struct.logger_watcher = type { ptr, i32, i32, i64, i64, i8, i32, i16, ptr }

@watcher_count = dso_local global i32 0, align 4
@logger_stack_head = internal global ptr null, align 8
@watchers = dso_local global [20 x ptr] zeroinitializer, align 16

; Function Attrs: nounwind uwtable
define internal void @logger_set_flags() #0 {
  %1 = alloca ptr, align 8
  %2 = alloca i32, align 4
  %3 = alloca i16, align 2
  %4 = alloca ptr, align 8
  %5 = alloca i32, align 4
  call void @llvm.lifetime.start.p0(i64 8, ptr %1) #11
  store ptr null, ptr %1, align 8, !tbaa !8
  call void @llvm.lifetime.start.p0(i64 4, ptr %2) #11
  store i32 0, ptr %2, align 4, !tbaa !11
  call void @llvm.lifetime.start.p0(i64 2, ptr %3) #11
  store i16 0, ptr %3, align 2, !tbaa !38
  store i32 0, ptr %2, align 4, !tbaa !11
  br label %6

6:                                                ; preds = %29, %0
  %7 = load i32, ptr %2, align 4, !tbaa !11
  %8 = icmp slt i32 %7, 20
  br i1 %8, label %9, label %32

9:                                                ; preds = %6
  call void @llvm.lifetime.start.p0(i64 8, ptr %4) #11
  %10 = load i32, ptr %2, align 4, !tbaa !11
  %11 = sext i32 %10 to i64
  %12 = getelementptr inbounds [20 x ptr], ptr @watchers, i64 0, i64 %11
  %13 = load ptr, ptr %12, align 8, !tbaa !28
  store ptr %13, ptr %4, align 8, !tbaa !28
  %14 = load ptr, ptr %4, align 8, !tbaa !28
  %15 = icmp eq ptr %14, null
  br i1 %15, label %16, label %17

16:                                               ; preds = %9
  store i32 4, ptr %5, align 4
  br label %26

17:                                               ; preds = %9
  %18 = load ptr, ptr %4, align 8, !tbaa !28
  %19 = getelementptr inbounds nuw %struct.logger_watcher, ptr %18, i32 0, i32 7
  %20 = load i16, ptr %19, align 8, !tbaa !50
  %21 = zext i16 %20 to i32
  %22 = load i16, ptr %3, align 2, !tbaa !38
  %23 = zext i16 %22 to i32
  %24 = or i32 %23, %21
  %25 = trunc i32 %24 to i16
  store i16 %25, ptr %3, align 2, !tbaa !38
  store i32 0, ptr %5, align 4
  br label %26

26:                                               ; preds = %17, %16
  call void @llvm.lifetime.end.p0(i64 8, ptr %4) #11
  %27 = load i32, ptr %5, align 4
  switch i32 %27, label %52 [
    i32 0, label %28
    i32 4, label %29
  ]

28:                                               ; preds = %26
  br label %29

29:                                               ; preds = %28, %26
  %30 = load i32, ptr %2, align 4, !tbaa !11
  %31 = add nsw i32 %30, 1
  store i32 %31, ptr %2, align 4, !tbaa !11
  br label %6, !llvm.loop !54

32:                                               ; preds = %6
  %33 = load ptr, ptr @logger_stack_head, align 8, !tbaa !8
  store ptr %33, ptr %1, align 8, !tbaa !8
  br label %34

34:                                               ; preds = %47, %32
  %35 = load ptr, ptr %1, align 8, !tbaa !8
  %36 = icmp ne ptr %35, null
  br i1 %36, label %37, label %51

37:                                               ; preds = %34
  %38 = load ptr, ptr %1, align 8, !tbaa !8
  %39 = getelementptr inbounds nuw %struct._logger, ptr %38, i32 0, i32 2
  %40 = call i32 @pthread_mutex_lock(ptr noundef %39) #11
  %41 = load i16, ptr %3, align 2, !tbaa !38
  %42 = load ptr, ptr %1, align 8, !tbaa !8
  %43 = getelementptr inbounds nuw %struct._logger, ptr %42, i32 0, i32 8
  store i16 %41, ptr %43, align 4, !tbaa !55
  %44 = load ptr, ptr %1, align 8, !tbaa !8
  %45 = getelementptr inbounds nuw %struct._logger, ptr %44, i32 0, i32 2
  %46 = call i32 @pthread_mutex_unlock(ptr noundef %45) #11
  br label %47

47:                                               ; preds = %37
  %48 = load ptr, ptr %1, align 8, !tbaa !8
  %49 = getelementptr inbounds nuw %struct._logger, ptr %48, i32 0, i32 1
  %50 = load ptr, ptr %49, align 8, !tbaa !27
  store ptr %50, ptr %1, align 8, !tbaa !8
  br label %34, !llvm.loop !56

51:                                               ; preds = %34
  store i32 1, ptr %5, align 4
  call void @llvm.lifetime.end.p0(i64 2, ptr %3) #11
  call void @llvm.lifetime.end.p0(i64 4, ptr %2) #11
  call void @llvm.lifetime.end.p0(i64 8, ptr %1) #11
  ret void

52:                                               ; preds = %26
  unreachable
}

; Function Attrs: nounwind uwtable
define internal void @logger_thread_close_watcher(ptr noundef %0) #0 {
  %2 = alloca ptr, align 8
  store ptr %0, ptr %2, align 8, !tbaa !28
  %3 = load ptr, ptr %2, align 8, !tbaa !28
  %4 = getelementptr inbounds nuw %struct.logger_watcher, ptr %3, i32 0, i32 2
  %5 = load i32, ptr %4, align 4, !tbaa !49
  %6 = sext i32 %5 to i64
  %7 = getelementptr inbounds [20 x ptr], ptr @watchers, i64 0, i64 %6
  store ptr null, ptr %7, align 8, !tbaa !28
  %8 = load ptr, ptr %2, align 8, !tbaa !28
  %9 = getelementptr inbounds nuw %struct.logger_watcher, ptr %8, i32 0, i32 0
  %10 = load ptr, ptr %9, align 8, !tbaa !45
  call void @sidethread_conn_close(ptr noundef %10)
  %11 = load i32, ptr @watcher_count, align 4, !tbaa !11
  %12 = add nsw i32 %11, -1
  store i32 %12, ptr @watcher_count, align 4, !tbaa !11
  %13 = load ptr, ptr %2, align 8, !tbaa !28
  %14 = getelementptr inbounds nuw %struct.logger_watcher, ptr %13, i32 0, i32 8
  %15 = load ptr, ptr %14, align 8, !tbaa !53
  call void @bipbuf_free(ptr noundef %15)
  %16 = load ptr, ptr %2, align 8, !tbaa !28
  call void @free(ptr noundef %16) #11
  call void @logger_set_flags()
  ret void
}