; Function Attrs: nounwind uwtable
define internal fastcc void @logger_thread_close_watcher(ptr noundef nonnull captures(none) %0) unnamed_addr #1 {
  %2 = getelementptr inbounds nuw i8, ptr %0, i64 12
  %3 = load i32, ptr %2, align 4, !tbaa !43
  %4 = sext i32 %3 to i64
  %5 = getelementptr inbounds [20 x ptr], ptr @watchers, i64 0, i64 %4
  store ptr null, ptr %5, align 8, !tbaa !36
  %6 = load ptr, ptr %0, align 8, !tbaa !39
  tail call void @sidethread_conn_close(ptr noundef %6) #18
  %7 = load i32, ptr @watcher_count, align 4, !tbaa !9
  %8 = add nsw i32 %7, -1
  store i32 %8, ptr @watcher_count, align 4, !tbaa !9
  %9 = getelementptr inbounds nuw i8, ptr %0, i64 48
  %10 = load ptr, ptr %9, align 8, !tbaa !47
  tail call void @bipbuf_free(ptr noundef %10) #18
  tail call void @free(ptr noundef nonnull %0) #18
  br label %11

.preheader.i:                                     ; preds = %19
  %.016.i = load ptr, ptr @logger_stack_head, align 8, !tbaa !4
  %.not17.i = icmp eq ptr %.016.i, null
  br i1 %.not17.i, label %logger_set_flags.exit, label %.lr.ph.i

11:                                               ; preds = %19, %1
  %indvars.iv.i = phi i64 [ 0, %1 ], [ %indvars.iv.next.i, %19 ]
  %.01115.i = phi i16 [ 0, %1 ], [ %.1.i, %19 ]
  %12 = getelementptr inbounds nuw [20 x ptr], ptr @watchers, i64 0, i64 %indvars.iv.i
  %13 = load ptr, ptr %12, align 8, !tbaa !36
  %14 = icmp eq ptr %13, null
  br i1 %14, label %19, label %15

15:                                               ; preds = %11
  %16 = getelementptr inbounds nuw i8, ptr %13, i64 40
  %17 = load i16, ptr %16, align 8, !tbaa !44
  %18 = or i16 %17, %.01115.i
  br label %19

19:                                               ; preds = %15, %11
  %.1.i = phi i16 [ %18, %15 ], [ %.01115.i, %11 ]
  %indvars.iv.next.i = add nuw nsw i64 %indvars.iv.i, 1
  %exitcond.not.i = icmp eq i64 %indvars.iv.next.i, 20
  br i1 %exitcond.not.i, label %.preheader.i, label %11, !llvm.loop !48

.lr.ph.i:                                         ; preds = %.preheader.i, %.lr.ph.i
  %.018.i = phi ptr [ %.0.i, %.lr.ph.i ], [ %.016.i, %.preheader.i ]
  %20 = getelementptr inbounds nuw i8, ptr %.018.i, i64 16
  %21 = tail call i32 @pthread_mutex_lock(ptr noundef nonnull %20) #18
  %22 = getelementptr inbounds nuw i8, ptr %.018.i, i64 84
  store i16 %.1.i, ptr %22, align 4, !tbaa !49
  %23 = tail call i32 @pthread_mutex_unlock(ptr noundef nonnull %20) #18
  %24 = getelementptr inbounds nuw i8, ptr %.018.i, i64 8
  %.0.i = load ptr, ptr %24, align 8, !tbaa !4
  %.not.i = icmp eq ptr %.0.i, null
  br i1 %.not.i, label %logger_set_flags.exit, label %.lr.ph.i, !llvm.loop !50

logger_set_flags.exit:                            ; preds = %.lr.ph.i, %.preheader.i
  ret void
}